; Function Attrs: mustprogress nounwind uwtable
define hidden void @_ZN2cv11xfeatures2d10FREAK_ImplD0Ev(ptr noundef nonnull align 8 dereferenceable(1920) %0) unnamed_addr #12 align 2 personality ptr @__gxx_personality_v0 {
  %2 = getelementptr inbounds nuw i8, ptr %0, i64 72
  %3 = load ptr, ptr %2, align 8, !tbaa !28
  %.not.i.i.i.i.i = icmp eq ptr %3, null
  br i1 %.not.i.i.i.i.i, label %_ZNSt6vectorIN2cv11xfeatures2d10FREAK_Impl12PatternPointESaIS3_EED2Ev.exit.i.i, label %4

4:                                                ; preds = %1
  tail call void @_ZdlPv(ptr noundef nonnull %3) #28
  br label %_ZNSt6vectorIN2cv11xfeatures2d10FREAK_Impl12PatternPointESaIS3_EED2Ev.exit.i.i

_ZNSt6vectorIN2cv11xfeatures2d10FREAK_Impl12PatternPointESaIS3_EED2Ev.exit.i.i: ; preds = %4, %1
  %5 = getelementptr inbounds nuw i8, ptr %0, i64 48
  %6 = load ptr, ptr %5, align 8, !tbaa !295
  %.not.i.i.i2.i.i = icmp eq ptr %6, null
  br i1 %.not.i.i.i2.i.i, label %_ZN2cv11xfeatures2d10FREAK_ImplD1Ev.exit, label %7

7:                                                ; preds = %_ZNSt6vectorIN2cv11xfeatures2d10FREAK_Impl12PatternPointESaIS3_EED2Ev.exit.i.i
  tail call void @_ZdlPv(ptr noundef nonnull %6) #28
  br label %_ZN2cv11xfeatures2d10FREAK_ImplD1Ev.exit

_ZN2cv11xfeatures2d10FREAK_ImplD1Ev.exit:         ; preds = %_ZNSt6vectorIN2cv11xfeatures2d10FREAK_Impl12PatternPointESaIS3_EED2Ev.exit.i.i, %7
  tail call void @_ZN2cv9Feature2DD2Ev(ptr noundef nonnull align 8 dereferenceable(1920) %0, ptr noundef nonnull getelementptr inbounds nuw (i8, ptr @_ZTTN2cv11xfeatures2d10FREAK_ImplE, i64 16)) #25
  tail call void @_ZN2cv9AlgorithmD2Ev(ptr noundef nonnull align 8 dereferenceable(1920) %0) #25
  tail call void @_ZdlPv(ptr noundef nonnull %0) #28
  ret void
}